; Function Attrs: mustprogress uwtable
define dso_local noundef ptr @_ZN3net22QuicCryptoServerConfig16AddDefaultConfigEPNS_10QuicRandomEPKNS_9QuicClockERKNS0_13ConfigOptionsE(ptr noundef nonnull align 8 dereferenceable(405) %this, ptr noundef %rand, ptr noundef %clock, ptr noundef nonnull align 8 dereferenceable(105) %options) local_unnamed_addr #0 align 2 personality ptr @__gxx_personality_v0 {
entry:
  %config = alloca %"class.std::unique_ptr.107", align 8
  %call = tail call noundef ptr @_ZN3net22QuicCryptoServerConfig14GenerateConfigEPNS_10QuicRandomEPKNS_9QuicClockERKNS0_13ConfigOptionsE(ptr noundef %rand, ptr noundef %clock, ptr noundef nonnull align 8 dereferenceable(105) %options)
  store ptr %call, ptr %config, align 8
  %vtable = load ptr, ptr %clock, align 8
  %vfn = getelementptr inbounds i8, ptr %vtable, i64 32
  %0 = load ptr, ptr %vfn, align 8
  %call3 = invoke i64 %0(ptr noundef nonnull align 8 dereferenceable(8) %clock)
          to label %invoke.cont unwind label %lpad

invoke.cont:                                      ; preds = %entry
  %call6 = invoke noundef ptr @_ZN3net22QuicCryptoServerConfig9AddConfigEPNS_24QuicServerConfigProtobufENS_12QuicWallTimeE(ptr noundef nonnull align 8 dereferenceable(405) %this, ptr noundef %call, i64 %call3)
          to label %invoke.cont5 unwind label %lpad

invoke.cont5:                                     ; preds = %invoke.cont
  %cmp.not.i = icmp eq ptr %call, null
  br i1 %cmp.not.i, label %_ZNSt10unique_ptrIN3net24QuicServerConfigProtobufESt14default_deleteIS1_EED2Ev.exit, label %_ZNKSt14default_deleteIN3net24QuicServerConfigProtobufEEclEPS1_.exit.i

_ZNKSt14default_deleteIN3net24QuicServerConfigProtobufEEclEPS1_.exit.i: ; preds = %invoke.cont5
  tail call void @_ZN3net24QuicServerConfigProtobufD1Ev(ptr noundef nonnull align 8 dereferenceable(104) %call) #20
  tail call void @_ZdlPv(ptr noundef nonnull %call) #23
  br label %_ZNSt10unique_ptrIN3net24QuicServerConfigProtobufESt14default_deleteIS1_EED2Ev.exit

_ZNSt10unique_ptrIN3net24QuicServerConfigProtobufESt14default_deleteIS1_EED2Ev.exit: ; preds = %invoke.cont5, %_ZNKSt14default_deleteIN3net24QuicServerConfigProtobufEEclEPS1_.exit.i
  ret ptr %call6

lpad:                                             ; preds = %invoke.cont, %entry
  %1 = landingpad { ptr, i32 }
          cleanup
  call void @_ZNSt10unique_ptrIN3net24QuicServerConfigProtobufESt14default_deleteIS1_EED2Ev(ptr noundef nonnull align 8 dereferenceable(8) %config) #20
  resume { ptr, i32 } %1
}